target datalayout = "e-m:e-p270:32:32-p271:32:32-p272:64:64-i64:64-i128:128-f80:128-n8:16:32:64-S128"
target triple = "x86_64-unknown-linux-gnu"

%"class.facebook::velox::encoding::Base64Exception" = type { %"class.std::exception", ptr }
%"class.std::exception" = type { ptr }
%"class.google::LogMessageFatal" = type { %"class.google::LogMessage" }
%"class.google::LogMessage" = type { ptr, ptr }
%"struct.google::CheckOpString" = type { ptr }
%"class.google::base::CheckOpMessageBuilder" = type { ptr }

@_ZTIN8facebook5velox8encoding15Base64ExceptionE = linkonce_odr constant { ptr, ptr, ptr } { ptr getelementptr inbounds (ptr, ptr @_ZTVN10__cxxabiv120__si_class_type_infoE, i64 2), ptr @_ZTSN8facebook5velox8encoding15Base64ExceptionE, ptr @_ZTISt9exception }, comdat, align 8
@.str.1 = private unnamed_addr constant [77 x i8] c"Base64::decode() - invalid input string: string length is not multiple of 4.\00", align 1
@.str.2 = private unnamed_addr constant [94 x i8] c"Base64::decode() - invalid input string: string length cannot be 1 more than a multiple of 4.\00", align 1
@_ZTVSt9exception = external unnamed_addr constant { [5 x ptr] }, align 8
@.str.6 = private unnamed_addr constant [9 x i8] c"len >= 2\00", align 1
@.str.7 = private unnamed_addr constant [118 x i8] c"generated/home/dtcxzyw/WorkSpace/Projects/compilers/llvm-opt-benchmark/bench/velox/velox/velox/common/encode/Base64.h\00", align 1

; Function Attrs: mustprogress uwtable
define linkonce_odr void @_ZN6google22MakeCheckOpValueStringIiEEvPSoRKT_(ptr noundef %os, ptr noundef nonnull align 4 dereferenceable(4) %v) #1 comdat {
entry:
  %os.addr = alloca ptr, align 8
  %v.addr = alloca ptr, align 8
  store ptr %os, ptr %os.addr, align 8
  store ptr %v, ptr %v.addr, align 8
  %0 = load ptr, ptr %os.addr, align 8
  %1 = load ptr, ptr %v.addr, align 8
  %2 = load i32, ptr %1, align 4
  %call = call noundef nonnull align 8 dereferenceable(8) ptr @_ZNSolsEi(ptr noundef nonnull align 8 dereferenceable(8) %0, i32 noundef %2)
  ret void
}

; Function Attrs: mustprogress uwtable
define linkonce_odr void @_ZN6google22MakeCheckOpValueStringImEEvPSoRKT_(ptr noundef %os, ptr noundef nonnull align 8 dereferenceable(8) %v) #1 comdat {
entry:
  %os.addr = alloca ptr, align 8
  %v.addr = alloca ptr, align 8
  store ptr %os, ptr %os.addr, align 8
  store ptr %v, ptr %v.addr, align 8
  %0 = load ptr, ptr %os.addr, align 8
  %1 = load ptr, ptr %v.addr, align 8
  %2 = load i64, ptr %1, align 8
  %call = call noundef nonnull align 8 dereferenceable(8) ptr @_ZNSolsEm(ptr noundef nonnull align 8 dereferenceable(8) %0, i64 noundef %2)
  ret void
}

; Function Attrs: mustprogress nounwind uwtable
define linkonce_odr noundef ptr @_ZN6google4base21CheckOpMessageBuilder7ForVar1Ev(ptr noundef nonnull align 8 dereferenceable(8) %this) #0 comdat align 2 {
entry:
  %this.addr = alloca ptr, align 8
  store ptr %this, ptr %this.addr, align 8
  %this1 = load ptr, ptr %this.addr, align 8
  %stream_ = getelementptr inbounds %"class.google::base::CheckOpMessageBuilder", ptr %this1, i32 0, i32 0
  %0 = load ptr, ptr %stream_, align 8
  ret ptr %0
}

; Function Attrs: mustprogress uwtable
define linkonce_odr noundef ptr @_ZN6google17MakeCheckOpStringImiEEPNSt7__cxx1112basic_stringIcSt11char_traitsIcESaIcEEERKT_RKT0_PKc(ptr noundef nonnull align 8 dereferenceable(8) %v1, ptr noundef nonnull align 4 dereferenceable(4) %v2, ptr noundef %exprtext) #1 comdat personality ptr @__gxx_personality_v0 {
entry:
  %v1.addr = alloca ptr, align 8
  %v2.addr = alloca ptr, align 8
  %exprtext.addr = alloca ptr, align 8
  %comb = alloca %"class.google::base::CheckOpMessageBuilder", align 8
  %exn.slot = alloca ptr, align 8
  %ehselector.slot = alloca i32, align 4
  store ptr %v1, ptr %v1.addr, align 8
  store ptr %v2, ptr %v2.addr, align 8
  store ptr %exprtext, ptr %exprtext.addr, align 8
  %0 = load ptr, ptr %exprtext.addr, align 8
  call void @_ZN6google4base21CheckOpMessageBuilderC1EPKc(ptr noundef nonnull align 8 dereferenceable(8) %comb, ptr noundef %0)
  %call = invoke noundef ptr @_ZN6google4base21CheckOpMessageBuilder7ForVar1Ev(ptr noundef nonnull align 8 dereferenceable(8) %comb)
          to label %invoke.cont unwind label %lpad

invoke.cont:                                      ; preds = %entry
  %1 = load ptr, ptr %v1.addr, align 8
  invoke void @_ZN6google22MakeCheckOpValueStringImEEvPSoRKT_(ptr noundef %call, ptr noundef nonnull align 8 dereferenceable(8) %1)
          to label %invoke.cont1 unwind label %lpad

invoke.cont1:                                     ; preds = %invoke.cont
  %call3 = invoke noundef ptr @_ZN6google4base21CheckOpMessageBuilder7ForVar2Ev(ptr noundef nonnull align 8 dereferenceable(8) %comb)
          to label %invoke.cont2 unwind label %lpad

invoke.cont2:                                     ; preds = %invoke.cont1
  %2 = load ptr, ptr %v2.addr, align 8
  invoke void @_ZN6google22MakeCheckOpValueStringIiEEvPSoRKT_(ptr noundef %call3, ptr noundef nonnull align 4 dereferenceable(4) %2)
          to label %invoke.cont4 unwind label %lpad

invoke.cont4:                                     ; preds = %invoke.cont2
  %call6 = invoke noundef ptr @_ZN6google4base21CheckOpMessageBuilder9NewStringB5cxx11Ev(ptr noundef nonnull align 8 dereferenceable(8) %comb)
          to label %invoke.cont5 unwind label %lpad

invoke.cont5:                                     ; preds = %invoke.cont4
  call void @_ZN6google4base21CheckOpMessageBuilderD1Ev(ptr noundef nonnull align 8 dereferenceable(8) %comb) #8
  ret ptr %call6

lpad:                                             ; preds = %invoke.cont4, %invoke.cont2, %invoke.cont1, %invoke.cont, %entry
  %3 = landingpad { ptr, i32 }
          cleanup
  %4 = extractvalue { ptr, i32 } %3, 0
  store ptr %4, ptr %exn.slot, align 8
  %5 = extractvalue { ptr, i32 } %3, 1
  store i32 %5, ptr %ehselector.slot, align 4
  call void @_ZN6google4base21CheckOpMessageBuilderD1Ev(ptr noundef nonnull align 8 dereferenceable(8) %comb) #8
  br label %eh.resume

eh.resume:                                        ; preds = %lpad
  %exn = load ptr, ptr %exn.slot, align 8
  %sel = load i32, ptr %ehselector.slot, align 4
  %lpad.val = insertvalue { ptr, i32 } poison, ptr %exn, 0
  %lpad.val7 = insertvalue { ptr, i32 } %lpad.val, i32 %sel, 1
  resume { ptr, i32 } %lpad.val7
}

; Function Attrs: mustprogress nounwind uwtable
define linkonce_odr noundef zeroext i1 @_ZNK6google13CheckOpStringcvbEv(ptr noundef nonnull align 8 dereferenceable(8) %this) #0 comdat align 2 {
entry:
  %this.addr = alloca ptr, align 8
  store ptr %this, ptr %this.addr, align 8
  %this1 = load ptr, ptr %this.addr, align 8
  %str_ = getelementptr inbounds %"struct.google::CheckOpString", ptr %this1, i32 0, i32 0
  %0 = load ptr, ptr %str_, align 8
  %cmp = icmp ne ptr %0, null
  ret i1 %cmp
}

; Function Attrs: mustprogress nounwind uwtable
define linkonce_odr void @_ZN6google13CheckOpStringC2EPNSt7__cxx1112basic_stringIcSt11char_traitsIcESaIcEEE(ptr noundef nonnull align 8 dereferenceable(8) %this, ptr noundef %str) unnamed_addr #0 comdat align 2 {
entry:
  %this.addr = alloca ptr, align 8
  %str.addr = alloca ptr, align 8
  store ptr %this, ptr %this.addr, align 8
  store ptr %str, ptr %str.addr, align 8
  %this1 = load ptr, ptr %this.addr, align 8
  %str_ = getelementptr inbounds %"struct.google::CheckOpString", ptr %this1, i32 0, i32 0
  %0 = load ptr, ptr %str.addr, align 8
  store ptr %0, ptr %str_, align 8
  ret void
}

; Function Attrs: mustprogress uwtable
define linkonce_odr noundef ptr @_ZN6google12Check_GEImplImiEEPNSt7__cxx1112basic_stringIcSt11char_traitsIcESaIcEEERKT_RKT0_PKc(ptr noundef nonnull align 8 dereferenceable(8) %v1, ptr noundef nonnull align 4 dereferenceable(4) %v2, ptr noundef %exprtext) #1 comdat {
entry:
  %retval = alloca ptr, align 8
  %v1.addr = alloca ptr, align 8
  %v2.addr = alloca ptr, align 8
  %exprtext.addr = alloca ptr, align 8
  store ptr %v1, ptr %v1.addr, align 8
  store ptr %v2, ptr %v2.addr, align 8
  store ptr %exprtext, ptr %exprtext.addr, align 8
  %0 = load ptr, ptr %v1.addr, align 8
  %1 = load i64, ptr %0, align 8
  %2 = load ptr, ptr %v2.addr, align 8
  %3 = load i32, ptr %2, align 4
  %conv = sext i32 %3 to i64
  %cmp = icmp uge i64 %1, %conv
  %lnot = xor i1 %cmp, true
  %lnot1 = xor i1 %lnot, true
  br i1 %lnot1, label %if.then, label %if.else

if.then:                                          ; preds = %entry
  store ptr null, ptr %retval, align 8
  br label %return

if.else:                                          ; preds = %entry
  %4 = load ptr, ptr %v1.addr, align 8
  %5 = load ptr, ptr %v2.addr, align 8
  %6 = load ptr, ptr %exprtext.addr, align 8
  %call = call noundef ptr @_ZN6google17MakeCheckOpStringImiEEPNSt7__cxx1112basic_stringIcSt11char_traitsIcESaIcEEERKT_RKT0_PKc(ptr noundef nonnull align 8 dereferenceable(8) %4, ptr noundef nonnull align 4 dereferenceable(4) %5, ptr noundef %6)
  store ptr %call, ptr %retval, align 8
  br label %return

return:                                           ; preds = %if.else, %if.then
  %7 = load ptr, ptr %retval, align 8
  ret ptr %7
}

; Function Attrs: mustprogress nounwind uwtable
define linkonce_odr noundef i32 @_ZN6google21GetReferenceableValueEi(i32 noundef %t) #0 comdat {
entry:
  %t.addr = alloca i32, align 4
  store i32 %t, ptr %t.addr, align 4
  %0 = load i32, ptr %t.addr, align 4
  ret i32 %0
}

; Function Attrs: mustprogress nounwind uwtable
define linkonce_odr noundef i64 @_ZN6google21GetReferenceableValueEm(i64 noundef %t) #0 comdat {
entry:
  %t.addr = alloca i64, align 8
  store i64 %t, ptr %t.addr, align 8
  %0 = load i64, ptr %t.addr, align 8
  ret i64 %0
}

; Function Attrs: mustprogress nounwind uwtable
define linkonce_odr void @_ZNSt9exceptionC2Ev(ptr noundef nonnull align 8 dereferenceable(8) %this) unnamed_addr #0 comdat align 2 {
entry:
  %this.addr = alloca ptr, align 8
  store ptr %this, ptr %this.addr, align 8
  %this1 = load ptr, ptr %this.addr, align 8
  store ptr getelementptr inbounds ({ [5 x ptr] }, ptr @_ZTVSt9exception, i32 0, i32 0, i32 2), ptr %this1, align 8
  ret void
}

; Function Attrs: mustprogress uwtable
define linkonce_odr noundef i64 @_ZN8facebook5velox8encoding6Base6412countPaddingEPKcm(ptr noundef %src, i64 noundef %len) #1 comdat align 2 personality ptr @__gxx_personality_v0 {
entry:
  %src.addr = alloca ptr, align 8
  %len.addr = alloca i64, align 8
  %_result = alloca %"struct.google::CheckOpString", align 8
  %ref.tmp = alloca i64, align 8
  %ref.tmp2 = alloca i32, align 4
  %ref.tmp7 = alloca %"class.google::LogMessageFatal", align 8
  %exn.slot = alloca ptr, align 8
  %ehselector.slot = alloca i32, align 4
  store ptr %src, ptr %src.addr, align 8
  store i64 %len, ptr %len.addr, align 8
  br label %while.cond

while.cond:                                       ; preds = %while.end, %entry
  br i1 false, label %while.body, label %while.end9

while.body:                                       ; preds = %while.cond
  br label %while.cond1

while.cond1:                                      ; preds = %while.body
  %0 = load i64, ptr %len.addr, align 8
  %call = call noundef i64 @_ZN6google21GetReferenceableValueEm(i64 noundef %0)
  store i64 %call, ptr %ref.tmp, align 8
  %call3 = call noundef i32 @_ZN6google21GetReferenceableValueEi(i32 noundef 2)
  store i32 %call3, ptr %ref.tmp2, align 4
  %call4 = call noundef ptr @_ZN6google12Check_GEImplImiEEPNSt7__cxx1112basic_stringIcSt11char_traitsIcESaIcEEERKT_RKT0_PKc(ptr noundef nonnull align 8 dereferenceable(8) %ref.tmp, ptr noundef nonnull align 4 dereferenceable(4) %ref.tmp2, ptr noundef @.str.6)
  call void @_ZN6google13CheckOpStringC2EPNSt7__cxx1112basic_stringIcSt11char_traitsIcESaIcEEE(ptr noundef nonnull align 8 dereferenceable(8) %_result, ptr noundef %call4)
  %call5 = call noundef zeroext i1 @_ZNK6google13CheckOpStringcvbEv(ptr noundef nonnull align 8 dereferenceable(8) %_result)
  br i1 %call5, label %while.body6, label %while.end

while.body6:                                      ; preds = %while.cond1
  call void @_ZN6google15LogMessageFatalC1EPKciRKNS_13CheckOpStringE(ptr noundef nonnull align 8 dereferenceable(16) %ref.tmp7, ptr noundef @.str.7, i32 noundef 103, ptr noundef nonnull align 8 dereferenceable(8) %_result)
  %call8 = invoke noundef nonnull align 8 dereferenceable(8) ptr @_ZN6google10LogMessage6streamEv(ptr noundef nonnull align 8 dereferenceable(16) %ref.tmp7)
          to label %invoke.cont unwind label %lpad

invoke.cont:                                      ; preds = %while.body6
  call void @_ZN6google15LogMessageFatalD1Ev(ptr noundef nonnull align 8 dereferenceable(16) %ref.tmp7) #10
  unreachable

lpad:                                             ; preds = %while.body6
  %1 = landingpad { ptr, i32 }
          cleanup
  %2 = extractvalue { ptr, i32 } %1, 0
  store ptr %2, ptr %exn.slot, align 8
  %3 = extractvalue { ptr, i32 } %1, 1
  store i32 %3, ptr %ehselector.slot, align 4
  call void @_ZN6google15LogMessageFatalD1Ev(ptr noundef nonnull align 8 dereferenceable(16) %ref.tmp7) #10
  unreachable

4:                                                ; No predecessors!
  br label %eh.resume

while.end:                                        ; preds = %while.cond1
  br label %while.cond, !llvm.loop !8

while.end9:                                       ; preds = %while.cond
  %5 = load ptr, ptr %src.addr, align 8
  %6 = load i64, ptr %len.addr, align 8
  %sub = sub i64 %6, 1
  %arrayidx = getelementptr inbounds i8, ptr %5, i64 %sub
  %7 = load i8, ptr %arrayidx, align 1
  %conv = sext i8 %7 to i32
  %cmp = icmp ne i32 %conv, 61
  br i1 %cmp, label %cond.true, label %cond.false

cond.true:                                        ; preds = %while.end9
  br label %cond.end

cond.false:                                       ; preds = %while.end9
  %8 = load ptr, ptr %src.addr, align 8
  %9 = load i64, ptr %len.addr, align 8
  %sub10 = sub i64 %9, 2
  %arrayidx11 = getelementptr inbounds i8, ptr %8, i64 %sub10
  %10 = load i8, ptr %arrayidx11, align 1
  %conv12 = sext i8 %10 to i32
  %cmp13 = icmp ne i32 %conv12, 61
  %cond = select i1 %cmp13, i32 1, i32 2
  br label %cond.end

cond.end:                                         ; preds = %cond.false, %cond.true
  %cond14 = phi i32 [ 0, %cond.true ], [ %cond, %cond.false ]
  %conv15 = sext i32 %cond14 to i64
  ret i64 %conv15

eh.resume:                                        ; preds = %4
  %exn = load ptr, ptr %exn.slot, align 8
  %sel = load i32, ptr %ehselector.slot, align 4
  %lpad.val = insertvalue { ptr, i32 } poison, ptr %exn, 0
  %lpad.val16 = insertvalue { ptr, i32 } %lpad.val, i32 %sel, 1
  resume { ptr, i32 } %lpad.val16
}

; Function Attrs: mustprogress nounwind uwtable
define linkonce_odr void @_ZN8facebook5velox8encoding15Base64ExceptionC2EPKc(ptr noundef nonnull align 8 dereferenceable(16) %this, ptr noundef %msg) unnamed_addr #0 comdat align 2 {
entry:
  %this.addr = alloca ptr, align 8
  %msg.addr = alloca ptr, align 8
  store ptr %this, ptr %this.addr, align 8
  store ptr %msg, ptr %msg.addr, align 8
  %this1 = load ptr, ptr %this.addr, align 8
  call void @_ZNSt9exceptionC2Ev(ptr noundef nonnull align 8 dereferenceable(8) %this1) #8
  store ptr getelementptr inbounds ({ [5 x ptr] }, ptr @_ZTVN8facebook5velox8encoding15Base64ExceptionE, i32 0, i32 0, i32 2), ptr %this1, align 8
  %msg_ = getelementptr inbounds %"class.facebook::velox::encoding::Base64Exception", ptr %this1, i32 0, i32 1
  %0 = load ptr, ptr %msg.addr, align 8
  store ptr %0, ptr %msg_, align 8
  ret void
}

; Function Attrs: mustprogress uwtable
define noundef i64 @_ZN8facebook5velox8encoding6Base6420calculateDecodedSizeEPKcRmb(ptr noundef %data, ptr noundef nonnull align 8 dereferenceable(8) %size, i1 noundef zeroext %withPadding) #1 align 2 personality ptr @__gxx_personality_v0 {
entry:
  %retval = alloca i64, align 8
  %data.addr = alloca ptr, align 8
  %size.addr = alloca ptr, align 8
  %withPadding.addr = alloca i8, align 1
  %needed = alloca i64, align 8
  %exn.slot = alloca ptr, align 8
  %ehselector.slot = alloca i32, align 4
  %padding = alloca i64, align 8
  %extra = alloca i64, align 8
  %padding18 = alloca i64, align 8
  store ptr %data, ptr %data.addr, align 8
  store ptr %size, ptr %size.addr, align 8
  %frombool = zext i1 %withPadding to i8
  store i8 %frombool, ptr %withPadding.addr, align 1
  %0 = load ptr, ptr %size.addr, align 8
  %1 = load i64, ptr %0, align 8
  %cmp = icmp eq i64 %1, 0
  br i1 %cmp, label %if.then, label %if.end

if.then:                                          ; preds = %entry
  store i64 0, ptr %retval, align 8
  br label %return

if.end:                                           ; preds = %entry
  %2 = load ptr, ptr %size.addr, align 8
  %3 = load i64, ptr %2, align 8
  %div = udiv i64 %3, 4
  %mul = mul i64 %div, 3
  store i64 %mul, ptr %needed, align 8
  %4 = load i8, ptr %withPadding.addr, align 1
  %tobool = trunc i8 %4 to i1
  br i1 %tobool, label %if.then1, label %if.end6

if.then1:                                         ; preds = %if.end
  %5 = load ptr, ptr %size.addr, align 8
  %6 = load i64, ptr %5, align 8
  %rem = urem i64 %6, 4
  %cmp2 = icmp ne i64 %rem, 0
  br i1 %cmp2, label %if.then3, label %if.end4

if.then3:                                         ; preds = %if.then1
  %exception = call ptr @__cxa_allocate_exception(i64 16) #8
  invoke void @_ZN8facebook5velox8encoding15Base64ExceptionC2EPKc(ptr noundef nonnull align 8 dereferenceable(16) %exception, ptr noundef @.str.1)
          to label %invoke.cont unwind label %lpad

invoke.cont:                                      ; preds = %if.then3
  call void @__cxa_throw(ptr %exception, ptr @_ZTIN8facebook5velox8encoding15Base64ExceptionE, ptr @_ZN8facebook5velox8encoding15Base64ExceptionD2Ev) #9
  unreachable

lpad:                                             ; preds = %if.then3
  %7 = landingpad { ptr, i32 }
          cleanup
  %8 = extractvalue { ptr, i32 } %7, 0
  store ptr %8, ptr %exn.slot, align 8
  %9 = extractvalue { ptr, i32 } %7, 1
  store i32 %9, ptr %ehselector.slot, align 4
  call void @__cxa_free_exception(ptr %exception) #8
  br label %eh.resume

if.end4:                                          ; preds = %if.then1
  %10 = load ptr, ptr %data.addr, align 8
  %11 = load ptr, ptr %size.addr, align 8
  %12 = load i64, ptr %11, align 8
  %call = call noundef i64 @_ZN8facebook5velox8encoding6Base6412countPaddingEPKcm(ptr noundef %10, i64 noundef %12)
  store i64 %call, ptr %padding, align 8
  %13 = load i64, ptr %padding, align 8
  %14 = load ptr, ptr %size.addr, align 8
  %15 = load i64, ptr %14, align 8
  %sub = sub i64 %15, %13
  store i64 %sub, ptr %14, align 8
  %16 = load i64, ptr %needed, align 8
  %17 = load i64, ptr %padding, align 8
  %sub5 = sub i64 %16, %17
  store i64 %sub5, ptr %retval, align 8
  br label %return

if.end6:                                          ; preds = %if.end
  %18 = load ptr, ptr %size.addr, align 8
  %19 = load i64, ptr %18, align 8
  %rem7 = urem i64 %19, 4
  store i64 %rem7, ptr %extra, align 8
  %20 = load i64, ptr %extra, align 8
  %tobool8 = icmp ne i64 %20, 0
  br i1 %tobool8, label %if.then9, label %if.end17

if.then9:                                         ; preds = %if.end6
  %21 = load i64, ptr %extra, align 8
  %cmp10 = icmp eq i64 %21, 1
  br i1 %cmp10, label %if.then11, label %if.end15

if.then11:                                        ; preds = %if.then9
  %exception12 = call ptr @__cxa_allocate_exception(i64 16) #8
  invoke void @_ZN8facebook5velox8encoding15Base64ExceptionC2EPKc(ptr noundef nonnull align 8 dereferenceable(16) %exception12, ptr noundef @.str.2)
          to label %invoke.cont14 unwind label %lpad13

invoke.cont14:                                    ; preds = %if.then11
  call void @__cxa_throw(ptr %exception12, ptr @_ZTIN8facebook5velox8encoding15Base64ExceptionE, ptr @_ZN8facebook5velox8encoding15Base64ExceptionD2Ev) #9
  unreachable

lpad13:                                           ; preds = %if.then11
  %22 = landingpad { ptr, i32 }
          cleanup
  %23 = extractvalue { ptr, i32 } %22, 0
  store ptr %23, ptr %exn.slot, align 8
  %24 = extractvalue { ptr, i32 } %22, 1
  store i32 %24, ptr %ehselector.slot, align 4
  call void @__cxa_free_exception(ptr %exception12) #8
  br label %eh.resume

if.end15:                                         ; preds = %if.then9
  %25 = load i64, ptr %needed, align 8
  %26 = load i64, ptr %extra, align 8
  %add = add i64 %25, %26
  %sub16 = sub i64 %add, 1
  store i64 %sub16, ptr %retval, align 8
  br label %return

if.end17:                                         ; preds = %if.end6
  %27 = load ptr, ptr %data.addr, align 8
  %28 = load ptr, ptr %size.addr, align 8
  %29 = load i64, ptr %28, align 8
  %call19 = call noundef i64 @_ZN8facebook5velox8encoding6Base6412countPaddingEPKcm(ptr noundef %27, i64 noundef %29)
  store i64 %call19, ptr %padding18, align 8
  %30 = load i64, ptr %padding18, align 8
  %31 = load ptr, ptr %size.addr, align 8
  %32 = load i64, ptr %31, align 8
  %sub20 = sub i64 %32, %30
  store i64 %sub20, ptr %31, align 8
  %33 = load i64, ptr %needed, align 8
  %34 = load i64, ptr %padding18, align 8
  %sub21 = sub i64 %33, %34
  store i64 %sub21, ptr %retval, align 8
  br label %return

return:                                           ; preds = %if.end17, %if.end15, %if.end4, %if.then
  %35 = load i64, ptr %retval, align 8
  ret i64 %35

eh.resume:                                        ; preds = %lpad13, %lpad
  %exn = load ptr, ptr %exn.slot, align 8
  %sel = load i32, ptr %ehselector.slot, align 4
  %lpad.val = insertvalue { ptr, i32 } poison, ptr %exn, 0
  %lpad.val22 = insertvalue { ptr, i32 } %lpad.val, i32 %sel, 1
  resume { ptr, i32 } %lpad.val22
}