; Function Attrs: mustprogress uwtable
define noundef i64 @_ZN8facebook5velox8encoding6Base6420calculateDecodedSizeEPKcRmb(ptr nocapture noundef readonly %data, ptr nocapture noundef nonnull align 8 dereferenceable(8) %size, i1 noundef zeroext %withPadding) local_unnamed_addr #2 align 2 personality ptr @__gxx_personality_v0 {
entry:
  %0 = load i64, ptr %size, align 8
  %cmp = icmp eq i64 %0, 0
  br i1 %cmp, label %return, label %if.end

if.end:                                           ; preds = %entry
  %div15 = lshr i64 %0, 2
  %mul = mul nuw i64 %div15, 3
  %rem = and i64 %0, 3
  br i1 %withPadding, label %if.then1, label %if.end6

if.then1:                                         ; preds = %if.end
  %cmp2.not = icmp eq i64 %rem, 0
  br i1 %cmp2.not, label %if.end4, label %if.then3

if.then3:                                         ; preds = %if.then1
  %exception = tail call ptr @__cxa_allocate_exception(i64 16) #10
  store ptr getelementptr inbounds ({ [5 x ptr] }, ptr @_ZTVN8facebook5velox8encoding15Base64ExceptionE, i64 0, i32 0, i64 2), ptr %exception, align 8
  %msg_.i = getelementptr inbounds i8, ptr %exception, i64 8
  store ptr @.str.1, ptr %msg_.i, align 8
  tail call void @__cxa_throw(ptr nonnull %exception, ptr nonnull @_ZTIN8facebook5velox8encoding15Base64ExceptionE, ptr nonnull @_ZN8facebook5velox8encoding15Base64ExceptionD2Ev) #12
  unreachable

if.end4:                                          ; preds = %if.then1
  %1 = getelementptr i8, ptr %data, i64 %0
  %arrayidx.i = getelementptr i8, ptr %1, i64 -1
  %2 = load i8, ptr %arrayidx.i, align 1
  %cmp.not.i = icmp eq i8 %2, 61
  br i1 %cmp.not.i, label %cond.false.i, label %_ZN8facebook5velox8encoding6Base6412countPaddingEPKcm.exit

cond.false.i:                                     ; preds = %if.end4
  %arrayidx11.i = getelementptr i8, ptr %1, i64 -2
  %3 = load i8, ptr %arrayidx11.i, align 1
  %cmp13.not.i = icmp eq i8 %3, 61
  %4 = select i1 %cmp13.not.i, i64 2, i64 1
  br label %_ZN8facebook5velox8encoding6Base6412countPaddingEPKcm.exit

_ZN8facebook5velox8encoding6Base6412countPaddingEPKcm.exit: ; preds = %if.end4, %cond.false.i
  %cond14.i = phi i64 [ %4, %cond.false.i ], [ 0, %if.end4 ]
  %sub = sub i64 %0, %cond14.i
  store i64 %sub, ptr %size, align 8
  %sub5 = sub i64 %mul, %cond14.i
  br label %return

if.end6:                                          ; preds = %if.end
  switch i64 %rem, label %if.end15 [
    i64 0, label %if.end17
    i64 1, label %if.then11
  ]

if.then11:                                        ; preds = %if.end6
  %exception12 = tail call ptr @__cxa_allocate_exception(i64 16) #10
  store ptr getelementptr inbounds ({ [5 x ptr] }, ptr @_ZTVN8facebook5velox8encoding15Base64ExceptionE, i64 0, i32 0, i64 2), ptr %exception12, align 8
  %msg_.i16 = getelementptr inbounds i8, ptr %exception12, i64 8
  store ptr @.str.2, ptr %msg_.i16, align 8
  tail call void @__cxa_throw(ptr nonnull %exception12, ptr nonnull @_ZTIN8facebook5velox8encoding15Base64ExceptionE, ptr nonnull @_ZN8facebook5velox8encoding15Base64ExceptionD2Ev) #12
  unreachable

if.end15:                                         ; preds = %if.end6
  %add = add nsw i64 %rem, -1
  %sub16 = add nuw i64 %add, %mul
  br label %return

if.end17:                                         ; preds = %if.end6
  %5 = getelementptr i8, ptr %data, i64 %0
  %arrayidx.i17 = getelementptr i8, ptr %5, i64 -1
  %6 = load i8, ptr %arrayidx.i17, align 1
  %cmp.not.i18 = icmp eq i8 %6, 61
  br i1 %cmp.not.i18, label %cond.false.i20, label %_ZN8facebook5velox8encoding6Base6412countPaddingEPKcm.exit23

cond.false.i20:                                   ; preds = %if.end17
  %arrayidx11.i21 = getelementptr i8, ptr %5, i64 -2
  %7 = load i8, ptr %arrayidx11.i21, align 1
  %cmp13.not.i22 = icmp eq i8 %7, 61
  %8 = select i1 %cmp13.not.i22, i64 2, i64 1
  br label %_ZN8facebook5velox8encoding6Base6412countPaddingEPKcm.exit23

_ZN8facebook5velox8encoding6Base6412countPaddingEPKcm.exit23: ; preds = %if.end17, %cond.false.i20
  %cond14.i19 = phi i64 [ %8, %cond.false.i20 ], [ 0, %if.end17 ]
  %sub20 = sub i64 %0, %cond14.i19
  store i64 %sub20, ptr %size, align 8
  %sub21 = sub i64 %mul, %cond14.i19
  br label %return

return:                                           ; preds = %entry, %_ZN8facebook5velox8encoding6Base6412countPaddingEPKcm.exit23, %if.end15, %_ZN8facebook5velox8encoding6Base6412countPaddingEPKcm.exit
  %retval.0 = phi i64 [ %sub5, %_ZN8facebook5velox8encoding6Base6412countPaddingEPKcm.exit ], [ %sub16, %if.end15 ], [ %sub21, %_ZN8facebook5velox8encoding6Base6412countPaddingEPKcm.exit23 ], [ 0, %entry ]
  ret i64 %retval.0
}